target datalayout = "e-m:e-p270:32:32-p271:32:32-p272:64:64-i64:64-i128:128-f80:128-n8:16:32:64-S128"
target triple = "x86_64-pc-linux-gnu"

%struct.Ivy_FraigParams_t_ = type { i32, double, i32, i32, double, double, i32, i32, i32, i32, i32 }
%struct.Ivy_Obj_t_ = type { i32, i32, i32, i32, ptr, ptr, ptr, ptr, ptr, ptr, ptr, ptr }
%struct.Ivy_FraigMan_t_ = type { ptr, i64, i64, ptr, ptr, i32, ptr, ptr, i32, ptr, ptr, %struct.Ivy_FraigList_t_, %struct.Ivy_FraigList_t_, i32, ptr, i32, ptr, ptr, i32, i32, i32, i32, i32, i32, i32, i32, i32, i32, i32, i32, i32, i64, i64, i64, i64, i64, i64, i64, i64, i64, i64 }
%struct.Ivy_FraigList_t_ = type { ptr, ptr, i32 }
%struct.sat_solver_t = type { i32, i32, i32, i32, %struct.Sat_Mem_t_, i32, i32, ptr, ptr, i32, i32, i32, i32, i32, i64, i64, i64, ptr, ptr, i32, i32, %struct.veci_t, ptr, i32, ptr, ptr, ptr, ptr, ptr, ptr, ptr, ptr, %struct.veci_t, %struct.veci_t, %struct.veci_t, %struct.veci_t, ptr, %struct.veci_t, i32, i32, i32, double, double, i32, i32, i32, %struct.stats_t, i32, i32, i32, i32, i32, i64, i64, i64, %struct.veci_t, ptr, i32, i32, i32, %struct.veci_t, %struct.veci_t, i32, i32, i32, ptr, ptr, i32, ptr, i32, i32, %struct.veci_t, %struct.veci_t, %struct.veci_t, ptr, ptr, i32, ptr }
%struct.Sat_Mem_t_ = type { [2 x i32], [2 x i32], [2 x i32], [2 x i32], i32, i32, i32, i32, ptr }
%struct.stats_t = type { i32, i32, i32, i64, i64, i64, i64, i64, i64, i64 }
%struct.veci_t = type { i32, i32, ptr }
%struct.timespec = type { i64, i64 }

; Function Attrs: inlinehint nounwind uwtable
define internal i32 @Ivy_ObjIsConst1(ptr noundef %0) #4 {
  %2 = alloca ptr, align 8
  store ptr %0, ptr %2, align 8, !tbaa !72
  %3 = load ptr, ptr %2, align 8, !tbaa !72
  %4 = getelementptr inbounds nuw %struct.Ivy_Obj_t_, ptr %3, i32 0, i32 0
  %5 = load i32, ptr %4, align 8, !tbaa !180
  %6 = icmp eq i32 %5, 0
  %7 = zext i1 %6 to i32
  ret i32 %7
}

; Function Attrs: inlinehint nounwind uwtable
define internal void @veci_resize(ptr noundef %0, i32 noundef %1) #4 {
  %3 = alloca ptr, align 8
  %4 = alloca i32, align 4
  store ptr %0, ptr %3, align 8, !tbaa !217
  store i32 %1, ptr %4, align 4, !tbaa !44
  %5 = load i32, ptr %4, align 4, !tbaa !44
  %6 = load ptr, ptr %3, align 8, !tbaa !217
  %7 = getelementptr inbounds nuw %struct.veci_t, ptr %6, i32 0, i32 1
  store i32 %5, ptr %7, align 4, !tbaa !218
  ret void
}

; Function Attrs: inlinehint nounwind uwtable
define internal i64 @Abc_Clock() #4 {
  %1 = alloca i64, align 8
  %2 = alloca %struct.timespec, align 8
  %3 = alloca i32, align 4
  %4 = alloca i64, align 8
  call void @llvm.lifetime.start.p0(i64 16, ptr %2) #12
  %5 = call i32 @clock_gettime(i32 noundef 1, ptr noundef %2) #12
  %6 = icmp slt i32 %5, 0
  br i1 %6, label %7, label %8

7:                                                ; preds = %0
  store i64 -1, ptr %1, align 8
  store i32 1, ptr %3, align 4
  br label %19

8:                                                ; preds = %0
  call void @llvm.lifetime.start.p0(i64 8, ptr %4) #12
  %9 = getelementptr inbounds nuw %struct.timespec, ptr %2, i32 0, i32 0
  %10 = load i64, ptr %9, align 8, !tbaa !260
  %11 = mul nsw i64 %10, 1000000
  store i64 %11, ptr %4, align 8, !tbaa !25
  %12 = getelementptr inbounds nuw %struct.timespec, ptr %2, i32 0, i32 1
  %13 = load i64, ptr %12, align 8, !tbaa !262
  %14 = mul nsw i64 %13, 1000000
  %15 = sdiv i64 %14, 1000000000
  %16 = load i64, ptr %4, align 8, !tbaa !25
  %17 = add nsw i64 %16, %15
  store i64 %17, ptr %4, align 8, !tbaa !25
  %18 = load i64, ptr %4, align 8, !tbaa !25
  store i64 %18, ptr %1, align 8
  store i32 1, ptr %3, align 4
  call void @llvm.lifetime.end.p0(i64 8, ptr %4) #12
  br label %19

19:                                               ; preds = %8, %7
  call void @llvm.lifetime.end.p0(i64 16, ptr %2) #12
  %20 = load i64, ptr %1, align 8
  ret i64 %20
}

; Function Attrs: nounwind uwtable
define internal i32 @Ivy_FraigSetActivityFactors(ptr noundef %0, ptr noundef %1, ptr noundef %2) #0 {
  %4 = alloca ptr, align 8
  %5 = alloca ptr, align 8
  %6 = alloca ptr, align 8
  %7 = alloca i32, align 4
  %8 = alloca i32, align 4
  %9 = alloca i64, align 8
  store ptr %0, ptr %4, align 8, !tbaa !60
  store ptr %1, ptr %5, align 8, !tbaa !72
  store ptr %2, ptr %6, align 8, !tbaa !72
  call void @llvm.lifetime.start.p0(i64 4, ptr %7) #12
  call void @llvm.lifetime.start.p0(i64 4, ptr %8) #12
  call void @llvm.lifetime.start.p0(i64 8, ptr %9) #12
  %10 = call i64 @Abc_Clock()
  store i64 %10, ptr %9, align 8, !tbaa !25
  %11 = load ptr, ptr %4, align 8, !tbaa !60
  %12 = getelementptr inbounds nuw %struct.Ivy_FraigMan_t_, ptr %11, i32 0, i32 14
  %13 = load ptr, ptr %12, align 8, !tbaa !87
  %14 = getelementptr inbounds nuw %struct.sat_solver_t, ptr %13, i32 0, i32 55
  call void @veci_resize(ptr noundef %14, i32 noundef 0)
  %15 = load ptr, ptr %4, align 8, !tbaa !60
  %16 = getelementptr inbounds nuw %struct.Ivy_FraigMan_t_, ptr %15, i32 0, i32 4
  %17 = load ptr, ptr %16, align 8, !tbaa !73
  call void @Ivy_ManIncrementTravId(ptr noundef %17)
  %18 = load ptr, ptr %6, align 8, !tbaa !72
  %19 = icmp ne ptr %18, null
  br i1 %19, label %20, label %25

20:                                               ; preds = %3
  %21 = load ptr, ptr %6, align 8, !tbaa !72
  %22 = getelementptr inbounds nuw %struct.Ivy_Obj_t_, ptr %21, i32 0, i32 2
  %23 = load i32, ptr %22, align 8
  %24 = lshr i32 %23, 11
  br label %26

25:                                               ; preds = %3
  br label %26

26:                                               ; preds = %25, %20
  %27 = phi i32 [ %24, %20 ], [ 0, %25 ]
  %28 = load ptr, ptr %5, align 8, !tbaa !72
  %29 = icmp ne ptr %28, null
  br i1 %29, label %30, label %35

30:                                               ; preds = %26
  %31 = load ptr, ptr %5, align 8, !tbaa !72
  %32 = getelementptr inbounds nuw %struct.Ivy_Obj_t_, ptr %31, i32 0, i32 2
  %33 = load i32, ptr %32, align 8
  %34 = lshr i32 %33, 11
  br label %36

35:                                               ; preds = %26
  br label %36

36:                                               ; preds = %35, %30
  %37 = phi i32 [ %34, %30 ], [ 0, %35 ]
  %38 = icmp sgt i32 %27, %37
  br i1 %38, label %39, label %50

39:                                               ; preds = %36
  %40 = load ptr, ptr %6, align 8, !tbaa !72
  %41 = icmp ne ptr %40, null
  br i1 %41, label %42, label %47

42:                                               ; preds = %39
  %43 = load ptr, ptr %6, align 8, !tbaa !72
  %44 = getelementptr inbounds nuw %struct.Ivy_Obj_t_, ptr %43, i32 0, i32 2
  %45 = load i32, ptr %44, align 8
  %46 = lshr i32 %45, 11
  br label %48

47:                                               ; preds = %39
  br label %48

48:                                               ; preds = %47, %42
  %49 = phi i32 [ %46, %42 ], [ 0, %47 ]
  br label %61

50:                                               ; preds = %36
  %51 = load ptr, ptr %5, align 8, !tbaa !72
  %52 = icmp ne ptr %51, null
  br i1 %52, label %53, label %58

53:                                               ; preds = %50
  %54 = load ptr, ptr %5, align 8, !tbaa !72
  %55 = getelementptr inbounds nuw %struct.Ivy_Obj_t_, ptr %54, i32 0, i32 2
  %56 = load i32, ptr %55, align 8
  %57 = lshr i32 %56, 11
  br label %59

58:                                               ; preds = %50
  br label %59

59:                                               ; preds = %58, %53
  %60 = phi i32 [ %57, %53 ], [ 0, %58 ]
  br label %61

61:                                               ; preds = %59, %48
  %62 = phi i32 [ %49, %48 ], [ %60, %59 ]
  store i32 %62, ptr %8, align 4, !tbaa !44
  %63 = load i32, ptr %8, align 4, !tbaa !44
  %64 = sitofp i32 %63 to double
  %65 = load ptr, ptr %4, align 8, !tbaa !60
  %66 = getelementptr inbounds nuw %struct.Ivy_FraigMan_t_, ptr %65, i32 0, i32 0
  %67 = load ptr, ptr %66, align 8, !tbaa !99
  %68 = getelementptr inbounds nuw %struct.Ivy_FraigParams_t_, ptr %67, i32 0, i32 4
  %69 = load double, ptr %68, align 8, !tbaa !16
  %70 = fsub double 1.000000e+00, %69
  %71 = fmul double %64, %70
  %72 = fptosi double %71 to i32
  store i32 %72, ptr %7, align 4, !tbaa !44
  %73 = load ptr, ptr %5, align 8, !tbaa !72
  %74 = icmp ne ptr %73, null
  br i1 %74, label %75, label %85

75:                                               ; preds = %61
  %76 = load ptr, ptr %5, align 8, !tbaa !72
  %77 = call i32 @Ivy_ObjIsConst1(ptr noundef %76)
  %78 = icmp ne i32 %77, 0
  br i1 %78, label %85, label %79

79:                                               ; preds = %75
  %80 = load ptr, ptr %4, align 8, !tbaa !60
  %81 = load ptr, ptr %5, align 8, !tbaa !72
  %82 = load i32, ptr %7, align 4, !tbaa !44
  %83 = load i32, ptr %8, align 4, !tbaa !44
  %84 = call i32 @Ivy_FraigSetActivityFactors_rec(ptr noundef %80, ptr noundef %81, i32 noundef %82, i32 noundef %83)
  br label %85

85:                                               ; preds = %79, %75, %61
  %86 = load ptr, ptr %6, align 8, !tbaa !72
  %87 = icmp ne ptr %86, null
  br i1 %87, label %88, label %98

88:                                               ; preds = %85
  %89 = load ptr, ptr %6, align 8, !tbaa !72
  %90 = call i32 @Ivy_ObjIsConst1(ptr noundef %89)
  %91 = icmp ne i32 %90, 0
  br i1 %91, label %98, label %92

92:                                               ; preds = %88
  %93 = load ptr, ptr %4, align 8, !tbaa !60
  %94 = load ptr, ptr %6, align 8, !tbaa !72
  %95 = load i32, ptr %7, align 4, !tbaa !44
  %96 = load i32, ptr %8, align 4, !tbaa !44
  %97 = call i32 @Ivy_FraigSetActivityFactors_rec(ptr noundef %93, ptr noundef %94, i32 noundef %95, i32 noundef %96)
  br label %98

98:                                               ; preds = %92, %88, %85
  %99 = call i64 @Abc_Clock()
  %100 = load i64, ptr %9, align 8, !tbaa !25
  %101 = sub nsw i64 %99, %100
  %102 = load ptr, ptr %4, align 8, !tbaa !60
  %103 = getelementptr inbounds nuw %struct.Ivy_FraigMan_t_, ptr %102, i32 0, i32 32
  %104 = load i64, ptr %103, align 8, !tbaa !267
  %105 = add nsw i64 %104, %101
  store i64 %105, ptr %103, align 8, !tbaa !267
  call void @llvm.lifetime.end.p0(i64 8, ptr %9) #12
  call void @llvm.lifetime.end.p0(i64 4, ptr %8) #12
  call void @llvm.lifetime.end.p0(i64 4, ptr %7) #12
  ret i32 1
}