; Function Attrs: nounwind uwtable
define internal fastcc void @Ivy_FraigSetActivityFactors(ptr noundef captures(none) %0, ptr noundef %1, ptr noundef %2) unnamed_addr #2 {
  %4 = alloca %struct.timespec, align 8
  %5 = alloca %struct.timespec, align 8
  call void @llvm.lifetime.start.p0(i64 16, ptr nonnull %5) #26
  %6 = call i32 @clock_gettime(i32 noundef 1, ptr noundef nonnull %5) #26
  %7 = icmp slt i32 %6, 0
  br i1 %7, label %Abc_Clock.exit, label %8

8:                                                ; preds = %3
  %9 = load i64, ptr %5, align 8, !tbaa !35
  %.neg52 = mul i64 %9, -1000000
  %10 = getelementptr inbounds nuw i8, ptr %5, i64 8
  %11 = load i64, ptr %10, align 8, !tbaa !37
  %.neg = sdiv i64 %11, -1000
  %.neg53 = add i64 %.neg, %.neg52
  br label %Abc_Clock.exit

Abc_Clock.exit:                                   ; preds = %3, %8
  %.0.i.neg = phi i64 [ %.neg53, %8 ], [ 1, %3 ]
  call void @llvm.lifetime.end.p0(i64 16, ptr nonnull %5) #26
  %12 = getelementptr inbounds nuw i8, ptr %0, i64 144
  %13 = load ptr, ptr %12, align 8, !tbaa !71
  %14 = getelementptr inbounds nuw i8, ptr %13, i64 524
  store i32 0, ptr %14, align 4, !tbaa !216
  %15 = getelementptr inbounds nuw i8, ptr %0, i64 32
  %16 = load ptr, ptr %15, align 8, !tbaa !69
  call void @Ivy_ManIncrementTravId(ptr noundef %16) #26
  %.not = icmp eq ptr %2, null
  br i1 %.not, label %.thread36, label %17

17:                                               ; preds = %Abc_Clock.exit
  %18 = getelementptr inbounds nuw i8, ptr %2, i64 8
  %19 = load i32, ptr %18, align 8
  %.not28 = icmp eq ptr %1, null
  br i1 %.not28, label %20, label %.thread

.thread36:                                        ; preds = %Abc_Clock.exit
  %.not2837 = icmp eq ptr %1, null
  br i1 %.not2837, label %.thread45, label %.thread36..thread35_crit_edge

.thread36..thread35_crit_edge:                    ; preds = %.thread36
  %.phi.trans.insert = getelementptr inbounds nuw i8, ptr %1, i64 8
  %.pre = load i32, ptr %.phi.trans.insert, align 8
  %.pre54 = lshr i32 %.pre, 11
  br label %.thread35

20:                                               ; preds = %17
  %.not49 = icmp ult i32 %19, 2048
  br i1 %.not49, label %.thread45, label %.thread57

.thread57:                                        ; preds = %20
  %.pre55 = lshr i32 %19, 11
  %21 = uitofp nneg i32 %.pre55 to double
  %22 = load ptr, ptr %0, align 8, !tbaa !85
  %23 = getelementptr inbounds nuw i8, ptr %22, i64 24
  %24 = load double, ptr %23, align 8, !tbaa !12
  %25 = fsub double 1.000000e+00, %24
  %26 = fmul double %25, %21
  %27 = fptosi double %26 to i32
  br label %.thread48

.thread:                                          ; preds = %17
  %28 = lshr i32 %19, 11
  %29 = getelementptr inbounds nuw i8, ptr %1, i64 8
  %30 = load i32, ptr %29, align 8
  %31 = lshr i32 %30, 11
  %spec.select = call i32 @llvm.umax.i32(i32 %28, i32 %31)
  br label %.thread35

.thread45:                                        ; preds = %20, %.thread36
  %32 = load ptr, ptr %0, align 8, !tbaa !85
  %33 = getelementptr inbounds nuw i8, ptr %32, i64 24
  %34 = load double, ptr %33, align 8, !tbaa !12
  %35 = fsub double 1.000000e+00, %34
  %36 = fmul double %35, 0.000000e+00
  %37 = fptosi double %36 to i32
  br label %47

.thread35:                                        ; preds = %.thread, %.thread36..thread35_crit_edge
  %.sink = phi i32 [ %.pre54, %.thread36..thread35_crit_edge ], [ %spec.select, %.thread ]
  %38 = uitofp nneg i32 %.sink to double
  %39 = load ptr, ptr %0, align 8, !tbaa !85
  %40 = getelementptr inbounds nuw i8, ptr %39, i64 24
  %41 = load double, ptr %40, align 8, !tbaa !12
  %42 = fsub double 1.000000e+00, %41
  %43 = fmul double %42, %38
  %44 = fptosi double %43 to i32
  %.val31 = load i32, ptr %1, align 8, !tbaa !121
  %.not50 = icmp eq i32 %.val31, 0
  br i1 %.not50, label %47, label %45

45:                                               ; preds = %.thread35
  %46 = call i32 @Ivy_FraigSetActivityFactors_rec(ptr noundef nonnull %0, ptr noundef nonnull %1, i32 noundef %44, i32 noundef %.sink)
  br label %47

47:                                               ; preds = %.thread45, %45, %.thread35
  %48 = phi i32 [ %44, %45 ], [ %44, %.thread35 ], [ %37, %.thread45 ]
  %49 = phi i32 [ %.sink, %45 ], [ %.sink, %.thread35 ], [ 0, %.thread45 ]
  br i1 %.not, label %.thread47, label %.thread48

.thread48:                                        ; preds = %.thread57, %47
  %50 = phi i32 [ %49, %47 ], [ %.pre55, %.thread57 ]
  %51 = phi i32 [ %48, %47 ], [ %27, %.thread57 ]
  %.val = load i32, ptr %2, align 8, !tbaa !121
  %.not51 = icmp eq i32 %.val, 0
  br i1 %.not51, label %.thread47, label %52

52:                                               ; preds = %.thread48
  %53 = call i32 @Ivy_FraigSetActivityFactors_rec(ptr noundef nonnull %0, ptr noundef nonnull %2, i32 noundef %51, i32 noundef %50)
  br label %.thread47

.thread47:                                        ; preds = %52, %.thread48, %47
  call void @llvm.lifetime.start.p0(i64 16, ptr nonnull %4) #26
  %54 = call i32 @clock_gettime(i32 noundef 1, ptr noundef nonnull %4) #26
  %55 = icmp slt i32 %54, 0
  br i1 %55, label %Abc_Clock.exit33, label %56

56:                                               ; preds = %.thread47
  %57 = load i64, ptr %4, align 8, !tbaa !35
  %58 = mul nsw i64 %57, 1000000
  %59 = getelementptr inbounds nuw i8, ptr %4, i64 8
  %60 = load i64, ptr %59, align 8, !tbaa !37
  %61 = sdiv i64 %60, 1000
  %62 = add nsw i64 %61, %58
  br label %Abc_Clock.exit33

Abc_Clock.exit33:                                 ; preds = %.thread47, %56
  %.0.i32 = phi i64 [ %62, %56 ], [ -1, %.thread47 ]
  call void @llvm.lifetime.end.p0(i64 16, ptr nonnull %4) #26
  %63 = add i64 %.0.i32, %.0.i.neg
  %64 = getelementptr inbounds nuw i8, ptr %0, i64 240
  %65 = load i64, ptr %64, align 8, !tbaa !152
  %66 = add nsw i64 %63, %65
  store i64 %66, ptr %64, align 8, !tbaa !152
  ret void
}